; ModuleID = 'source-C-CXX/61/839.c'
source_filename = "source-C-CXX/61/839.c"
target datalayout = "e-m:e-p270:32:32-p271:32:32-p272:64:64-i64:64-f80:128-n8:16:32:64-S128"
target triple = "x86_64-pc-linux-gnu"

; Function Attrs: nounwind sspstrong uwtable
define dso_local i32 @main() local_unnamed_addr #0 {
  %1 = alloca [250 x i8], align 16
  %2 = getelementptr inbounds [250 x i8], [250 x i8]* %1, i64 0, i64 0
  call void @llvm.lifetime.start.p0i8(i64 250, i8* nonnull %2) #5
  %3 = call i32 (i8*, ...) bitcast (i32 (...)* @gets to i32 (i8*, ...)*)(i8* nonnull %2) #5
  %4 = call i64 @strlen(i8* noundef nonnull %2) #6
  %5 = trunc i64 %4 to i32
  %6 = icmp sgt i32 %5, 0
  br i1 %6, label %7, label %13

7:                                                ; preds = %0
  %8 = and i64 %4, 4294967295
  %9 = load i8, i8* %2, align 16, !tbaa !5
  %10 = sext i8 %9 to i32
  %11 = call i32 @putchar(i32 %10)
  %12 = icmp eq i64 %8, 1
  br i1 %12, label %13, label %14

13:                                               ; preds = %29, %7, %0
  call void @llvm.lifetime.end.p0i8(i64 250, i8* nonnull %2) #5
  ret i32 0

14:                                               ; preds = %7, %29
  %15 = phi i64 [ %30, %29 ], [ 1, %7 ]
  %16 = getelementptr inbounds [250 x i8], [250 x i8]* %1, i64 0, i64 %15
  %17 = load i8, i8* %16, align 1, !tbaa !5
  %18 = icmp eq i8 %17, 32
  br i1 %18, label %21, label %19

19:                                               ; preds = %14
  %20 = sext i8 %17 to i32
  br label %26

21:                                               ; preds = %14
  %22 = add nsw i64 %15, -1
  %23 = getelementptr inbounds [250 x i8], [250 x i8]* %1, i64 0, i64 %22
  %24 = load i8, i8* %23, align 1, !tbaa !5
  %25 = icmp eq i8 %24, 32
  br i1 %25, label %29, label %26

26:                                               ; preds = %21, %19
  %27 = phi i32 [ %20, %19 ], [ 32, %21 ]
  %28 = call i32 @putchar(i32 %27)
  br label %29

29:                                               ; preds = %26, %21
  %30 = add nuw nsw i64 %15, 1
  %31 = icmp eq i64 %30, %8
  br i1 %31, label %13, label %14, !llvm.loop !8
}

; Function Attrs: argmemonly mustprogress nofree nosync nounwind willreturn
declare void @llvm.lifetime.start.p0i8(i64 immarg, i8* nocapture) #1

declare i32 @gets(...) local_unnamed_addr #2

; Function Attrs: argmemonly mustprogress nofree nounwind readonly willreturn
declare i64 @strlen(i8* nocapture) local_unnamed_addr #3

; Function Attrs: argmemonly mustprogress nofree nosync nounwind willreturn
declare void @llvm.lifetime.end.p0i8(i64 immarg, i8* nocapture) #1

; Function Attrs: nofree nounwind
declare noundef i32 @putchar(i32 noundef) local_unnamed_addr #4


!llvm.module.flags = !{!0, !1, !2, !3}
!llvm.ident = !{!4}

!0 = !{i32 1, !"wchar_size", i32 4}
!1 = !{i32 7, !"PIC Level", i32 2}
!2 = !{i32 7, !"PIE Level", i32 2}
!3 = !{i32 7, !"uwtable", i32 1}
!4 = !{!"clang version 13.0.0"}
!5 = !{!6, !6, i64 0}
!6 = !{!"omnipotent char", !7, i64 0}
!7 = !{!"Simple C/C++ TBAA"}
!8 = distinct !{!8, !9, !10}
!9 = !{!"llvm.loop.mustprogress"}
!10 = !{!"llvm.loop.peeled.count", i32 1}
